; Function Attrs: nounwind uwtable
define i64 @bufferevent_get_max_single_write(ptr noundef readonly captures(none) %0) local_unnamed_addr #3 {
  %2 = getelementptr inbounds nuw i8, ptr %0, i64 448
  %3 = load ptr, ptr %2, align 8
  %.not = icmp eq ptr %3, null
  br i1 %.not, label %.thread, label %6

.thread:                                          ; preds = %1
  %4 = getelementptr inbounds nuw i8, ptr %0, i64 464
  %5 = load i64, ptr %4, align 8
  br label %14

6:                                                ; preds = %1
  %7 = load ptr, ptr getelementptr inbounds nuw (i8, ptr @evthread_lock_fns_, i64 24), align 8
  %8 = tail call i32 %7(i32 noundef 0, ptr noundef nonnull %3) #10
  %.pr = load ptr, ptr %2, align 8
  %9 = getelementptr inbounds nuw i8, ptr %0, i64 464
  %10 = load i64, ptr %9, align 8
  %.not8 = icmp eq ptr %.pr, null
  br i1 %.not8, label %14, label %11

11:                                               ; preds = %6
  %12 = load ptr, ptr getelementptr inbounds nuw (i8, ptr @evthread_lock_fns_, i64 32), align 8
  %13 = tail call i32 %12(i32 noundef 0, ptr noundef nonnull %.pr) #10
  br label %14

14:                                               ; preds = %.thread, %11, %6
  %15 = phi i64 [ %5, %.thread ], [ %10, %11 ], [ %10, %6 ]
  ret i64 %15
}